target datalayout = "e-m:e-p270:32:32-p271:32:32-p272:64:64-i64:64-i128:128-f80:128-n8:16:32:64-S128"
target triple = "x86_64-pc-linux-gnu"

%struct.Fra_Par_t_ = type { i32, double, i32, i32, double, double, i32, i32, i32, i32, i32, i32, i32, i32, i32, i32, i32, i32, i32, i32, i32, i32, i32, i32, i32 }
%struct.Fra_Man_t_ = type { ptr, ptr, ptr, i32, ptr, i32, ptr, ptr, ptr, i32, ptr, ptr, ptr, ptr, i32, ptr, i64, i64, ptr, ptr, i32, ptr, i32, i32, i32, i32, i32, i32, i32, i32, i32, i32, i32, i32, i32, i32, i32, i32, i32, i32, i32, i64, i64, i64, i64, i64, i64, i64, i64, i64, i64, i64 }
%struct.Aig_Man_t_ = type { ptr, ptr, ptr, ptr, ptr, ptr, ptr, %struct.Aig_Obj_t_, i32, i32, i32, i32, i32, i32, [7 x i32], i32, ptr, i32, ptr, i32, ptr, i32, i32, i32, ptr, i32, i32, i32, i32, i32, ptr, ptr, i32, ptr, ptr, i32, ptr, ptr, i32, i32, i32, ptr, ptr, ptr, ptr, ptr, ptr, ptr, ptr, ptr, ptr, ptr, ptr, ptr, ptr, i32, ptr, ptr, ptr, ptr, i32, i64, i64, i64, ptr, ptr }
%struct.Aig_Obj_t_ = type { %union.anon, ptr, ptr, i64, i32, i32, %union.anon.0 }
%union.anon = type { ptr }
%union.anon.0 = type { ptr }
%struct.Vec_Ptr_t_ = type { i32, i32, ptr }

; Function Attrs: inlinehint nounwind uwtable
define internal ptr @Vec_PtrEntry(ptr noundef %0, i32 noundef %1) #4 {
  %3 = alloca ptr, align 8
  %4 = alloca i32, align 4
  store ptr %0, ptr %3, align 8, !tbaa !62
  store i32 %1, ptr %4, align 4, !tbaa !48
  %5 = load ptr, ptr %3, align 8, !tbaa !62
  %6 = getelementptr inbounds nuw %struct.Vec_Ptr_t_, ptr %5, i32 0, i32 2
  %7 = load ptr, ptr %6, align 8, !tbaa !66
  %8 = load i32, ptr %4, align 4, !tbaa !48
  %9 = sext i32 %8 to i64
  %10 = getelementptr inbounds ptr, ptr %7, i64 %9
  %11 = load ptr, ptr %10, align 8, !tbaa !67
  ret ptr %11
}

; Function Attrs: inlinehint nounwind uwtable
define internal i32 @Vec_PtrSize(ptr noundef %0) #4 {
  %2 = alloca ptr, align 8
  store ptr %0, ptr %2, align 8, !tbaa !62
  %3 = load ptr, ptr %2, align 8, !tbaa !62
  %4 = getelementptr inbounds nuw %struct.Vec_Ptr_t_, ptr %3, i32 0, i32 1
  %5 = load i32, ptr %4, align 4, !tbaa !63
  ret i32 %5
}

; Function Attrs: inlinehint nounwind uwtable
define internal ptr @Vec_PtrAlloc(i32 noundef %0) #4 {
  %2 = alloca i32, align 4
  %3 = alloca ptr, align 8
  store i32 %0, ptr %2, align 4, !tbaa !48
  call void @llvm.lifetime.start.p0(i64 8, ptr %3) #10
  %4 = call noalias ptr @malloc(i64 noundef 16) #11
  store ptr %4, ptr %3, align 8, !tbaa !62
  %5 = load i32, ptr %2, align 4, !tbaa !48
  %6 = icmp sgt i32 %5, 0
  br i1 %6, label %7, label %11

7:                                                ; preds = %1
  %8 = load i32, ptr %2, align 4, !tbaa !48
  %9 = icmp slt i32 %8, 8
  br i1 %9, label %10, label %11

10:                                               ; preds = %7
  store i32 8, ptr %2, align 4, !tbaa !48
  br label %11

11:                                               ; preds = %10, %7, %1
  %12 = load ptr, ptr %3, align 8, !tbaa !62
  %13 = getelementptr inbounds nuw %struct.Vec_Ptr_t_, ptr %12, i32 0, i32 1
  store i32 0, ptr %13, align 4, !tbaa !63
  %14 = load i32, ptr %2, align 4, !tbaa !48
  %15 = load ptr, ptr %3, align 8, !tbaa !62
  %16 = getelementptr inbounds nuw %struct.Vec_Ptr_t_, ptr %15, i32 0, i32 0
  store i32 %14, ptr %16, align 8, !tbaa !65
  %17 = load ptr, ptr %3, align 8, !tbaa !62
  %18 = getelementptr inbounds nuw %struct.Vec_Ptr_t_, ptr %17, i32 0, i32 0
  %19 = load i32, ptr %18, align 8, !tbaa !65
  %20 = icmp ne i32 %19, 0
  br i1 %20, label %21, label %28

21:                                               ; preds = %11
  %22 = load ptr, ptr %3, align 8, !tbaa !62
  %23 = getelementptr inbounds nuw %struct.Vec_Ptr_t_, ptr %22, i32 0, i32 0
  %24 = load i32, ptr %23, align 8, !tbaa !65
  %25 = sext i32 %24 to i64
  %26 = mul i64 8, %25
  %27 = call noalias ptr @malloc(i64 noundef %26) #11
  br label %29

28:                                               ; preds = %11
  br label %29

29:                                               ; preds = %28, %21
  %30 = phi ptr [ %27, %21 ], [ null, %28 ]
  %31 = load ptr, ptr %3, align 8, !tbaa !62
  %32 = getelementptr inbounds nuw %struct.Vec_Ptr_t_, ptr %31, i32 0, i32 2
  store ptr %30, ptr %32, align 8, !tbaa !66
  %33 = load ptr, ptr %3, align 8, !tbaa !62
  call void @llvm.lifetime.end.p0(i64 8, ptr %3) #10
  ret ptr %33
}

; Function Attrs: inlinehint nounwind uwtable
define internal i32 @Abc_BitWordNum(i32 noundef %0) #4 {
  %2 = alloca i32, align 4
  store i32 %0, ptr %2, align 4, !tbaa !48
  %3 = load i32, ptr %2, align 4, !tbaa !48
  %4 = ashr i32 %3, 5
  %5 = load i32, ptr %2, align 4, !tbaa !48
  %6 = and i32 %5, 31
  %7 = icmp sgt i32 %6, 0
  %8 = zext i1 %7 to i32
  %9 = add nsw i32 %4, %8
  ret i32 %9
}

; Function Attrs: inlinehint nounwind uwtable
define internal i32 @Aig_ManRegNum(ptr noundef %0) #4 {
  %2 = alloca ptr, align 8
  store ptr %0, ptr %2, align 8, !tbaa !24
  %3 = load ptr, ptr %2, align 8, !tbaa !24
  %4 = getelementptr inbounds nuw %struct.Aig_Man_t_, ptr %3, i32 0, i32 8
  %5 = load i32, ptr %4, align 8, !tbaa !61
  ret i32 %5
}

; Function Attrs: inlinehint nounwind uwtable
define internal i32 @Aig_ManCiNum(ptr noundef %0) #4 {
  %2 = alloca ptr, align 8
  store ptr %0, ptr %2, align 8, !tbaa !24
  %3 = load ptr, ptr %2, align 8, !tbaa !24
  %4 = getelementptr inbounds nuw %struct.Aig_Man_t_, ptr %3, i32 0, i32 14
  %5 = getelementptr inbounds [7 x i32], ptr %4, i64 0, i64 2
  %6 = load i32, ptr %5, align 8, !tbaa !48
  ret i32 %6
}

; Function Attrs: inlinehint nounwind uwtable
define internal i32 @Aig_ManObjNumMax(ptr noundef %0) #4 {
  %2 = alloca ptr, align 8
  store ptr %0, ptr %2, align 8, !tbaa !24
  %3 = load ptr, ptr %2, align 8, !tbaa !24
  %4 = getelementptr inbounds nuw %struct.Aig_Man_t_, ptr %3, i32 0, i32 4
  %5 = load ptr, ptr %4, align 8, !tbaa !49
  %6 = call i32 @Vec_PtrSize(ptr noundef %5)
  ret i32 %6
}

; Function Attrs: nounwind uwtable
define ptr @Fra_ManStart(ptr noundef %0, ptr noundef %1) #0 {
  %3 = alloca ptr, align 8
  %4 = alloca ptr, align 8
  %5 = alloca ptr, align 8
  %6 = alloca ptr, align 8
  %7 = alloca i32, align 4
  store ptr %0, ptr %3, align 8, !tbaa !24
  store ptr %1, ptr %4, align 8, !tbaa !3
  call void @llvm.lifetime.start.p0(i64 8, ptr %5) #10
  call void @llvm.lifetime.start.p0(i64 8, ptr %6) #10
  call void @llvm.lifetime.start.p0(i64 4, ptr %7) #10
  %8 = call noalias ptr @malloc(i64 noundef 344) #11
  store ptr %8, ptr %5, align 8, !tbaa !26
  %9 = load ptr, ptr %5, align 8, !tbaa !26
  call void @llvm.memset.p0.i64(ptr align 8 %9, i8 0, i64 344, i1 false)
  %10 = load ptr, ptr %4, align 8, !tbaa !3
  %11 = load ptr, ptr %5, align 8, !tbaa !26
  %12 = getelementptr inbounds nuw %struct.Fra_Man_t_, ptr %11, i32 0, i32 0
  store ptr %10, ptr %12, align 8, !tbaa !28
  %13 = load ptr, ptr %3, align 8, !tbaa !24
  %14 = load ptr, ptr %5, align 8, !tbaa !26
  %15 = getelementptr inbounds nuw %struct.Fra_Man_t_, ptr %14, i32 0, i32 1
  store ptr %13, ptr %15, align 8, !tbaa !40
  %16 = load ptr, ptr %3, align 8, !tbaa !24
  %17 = call i32 @Aig_ManObjNumMax(ptr noundef %16)
  %18 = load ptr, ptr %5, align 8, !tbaa !26
  %19 = getelementptr inbounds nuw %struct.Fra_Man_t_, ptr %18, i32 0, i32 5
  store i32 %17, ptr %19, align 8, !tbaa !41
  %20 = load ptr, ptr %4, align 8, !tbaa !3
  %21 = getelementptr inbounds nuw %struct.Fra_Par_t_, ptr %20, i32 0, i32 16
  %22 = load i32, ptr %21, align 8, !tbaa !20
  %23 = add nsw i32 %22, 1
  %24 = load ptr, ptr %5, align 8, !tbaa !26
  %25 = getelementptr inbounds nuw %struct.Fra_Man_t_, ptr %24, i32 0, i32 3
  store i32 %23, ptr %25, align 8, !tbaa !42
  %26 = load ptr, ptr %3, align 8, !tbaa !24
  %27 = call i32 @Aig_ManCiNum(ptr noundef %26)
  %28 = load ptr, ptr %3, align 8, !tbaa !24
  %29 = call i32 @Aig_ManRegNum(ptr noundef %28)
  %30 = sub nsw i32 %27, %29
  %31 = load ptr, ptr %5, align 8, !tbaa !26
  %32 = getelementptr inbounds nuw %struct.Fra_Man_t_, ptr %31, i32 0, i32 3
  %33 = load i32, ptr %32, align 8, !tbaa !42
  %34 = mul nsw i32 %30, %33
  %35 = load ptr, ptr %3, align 8, !tbaa !24
  %36 = call i32 @Aig_ManRegNum(ptr noundef %35)
  %37 = add nsw i32 %34, %36
  %38 = call i32 @Abc_BitWordNum(i32 noundef %37)
  %39 = load ptr, ptr %5, align 8, !tbaa !26
  %40 = getelementptr inbounds nuw %struct.Fra_Man_t_, ptr %39, i32 0, i32 9
  store i32 %38, ptr %40, align 8, !tbaa !43
  %41 = load ptr, ptr %5, align 8, !tbaa !26
  %42 = getelementptr inbounds nuw %struct.Fra_Man_t_, ptr %41, i32 0, i32 9
  %43 = load i32, ptr %42, align 8, !tbaa !43
  %44 = sext i32 %43 to i64
  %45 = mul i64 4, %44
  %46 = call noalias ptr @malloc(i64 noundef %45) #11
  %47 = load ptr, ptr %5, align 8, !tbaa !26
  %48 = getelementptr inbounds nuw %struct.Fra_Man_t_, ptr %47, i32 0, i32 10
  store ptr %46, ptr %48, align 8, !tbaa !44
  %49 = call ptr @Vec_PtrAlloc(i32 noundef 100)
  %50 = load ptr, ptr %5, align 8, !tbaa !26
  %51 = getelementptr inbounds nuw %struct.Fra_Man_t_, ptr %50, i32 0, i32 15
  store ptr %49, ptr %51, align 8, !tbaa !45
  %52 = load ptr, ptr %3, align 8, !tbaa !24
  %53 = call ptr @Fra_ClassesStart(ptr noundef %52)
  %54 = load ptr, ptr %5, align 8, !tbaa !26
  %55 = getelementptr inbounds nuw %struct.Fra_Man_t_, ptr %54, i32 0, i32 6
  store ptr %53, ptr %55, align 8, !tbaa !46
  %56 = load ptr, ptr %5, align 8, !tbaa !26
  %57 = getelementptr inbounds nuw %struct.Fra_Man_t_, ptr %56, i32 0, i32 5
  %58 = load i32, ptr %57, align 8, !tbaa !41
  %59 = load ptr, ptr %5, align 8, !tbaa !26
  %60 = getelementptr inbounds nuw %struct.Fra_Man_t_, ptr %59, i32 0, i32 3
  %61 = load i32, ptr %60, align 8, !tbaa !42
  %62 = mul nsw i32 %58, %61
  %63 = sext i32 %62 to i64
  %64 = mul i64 8, %63
  %65 = call noalias ptr @malloc(i64 noundef %64) #11
  %66 = load ptr, ptr %5, align 8, !tbaa !26
  %67 = getelementptr inbounds nuw %struct.Fra_Man_t_, ptr %66, i32 0, i32 4
  store ptr %65, ptr %67, align 8, !tbaa !47
  %68 = load ptr, ptr %5, align 8, !tbaa !26
  %69 = getelementptr inbounds nuw %struct.Fra_Man_t_, ptr %68, i32 0, i32 4
  %70 = load ptr, ptr %69, align 8, !tbaa !47
  %71 = load ptr, ptr %5, align 8, !tbaa !26
  %72 = getelementptr inbounds nuw %struct.Fra_Man_t_, ptr %71, i32 0, i32 5
  %73 = load i32, ptr %72, align 8, !tbaa !41
  %74 = sext i32 %73 to i64
  %75 = mul i64 8, %74
  %76 = load ptr, ptr %5, align 8, !tbaa !26
  %77 = getelementptr inbounds nuw %struct.Fra_Man_t_, ptr %76, i32 0, i32 3
  %78 = load i32, ptr %77, align 8, !tbaa !42
  %79 = sext i32 %78 to i64
  %80 = mul i64 %75, %79
  call void @llvm.memset.p0.i64(ptr align 8 %70, i8 0, i64 %80, i1 false)
  %81 = call i32 @Aig_ManRandom(i32 noundef 1)
  store i32 0, ptr %7, align 4, !tbaa !48
  br label %82

82:                                               ; preds = %110, %2
  %83 = load i32, ptr %7, align 4, !tbaa !48
  %84 = load ptr, ptr %5, align 8, !tbaa !26
  %85 = getelementptr inbounds nuw %struct.Fra_Man_t_, ptr %84, i32 0, i32 1
  %86 = load ptr, ptr %85, align 8, !tbaa !40
  %87 = getelementptr inbounds nuw %struct.Aig_Man_t_, ptr %86, i32 0, i32 4
  %88 = load ptr, ptr %87, align 8, !tbaa !49
  %89 = call i32 @Vec_PtrSize(ptr noundef %88)
  %90 = icmp slt i32 %83, %89
  br i1 %90, label %91, label %99

91:                                               ; preds = %82
  %92 = load ptr, ptr %5, align 8, !tbaa !26
  %93 = getelementptr inbounds nuw %struct.Fra_Man_t_, ptr %92, i32 0, i32 1
  %94 = load ptr, ptr %93, align 8, !tbaa !40
  %95 = getelementptr inbounds nuw %struct.Aig_Man_t_, ptr %94, i32 0, i32 4
  %96 = load ptr, ptr %95, align 8, !tbaa !49
  %97 = load i32, ptr %7, align 4, !tbaa !48
  %98 = call ptr @Vec_PtrEntry(ptr noundef %96, i32 noundef %97)
  store ptr %98, ptr %6, align 8, !tbaa !57
  br label %99

99:                                               ; preds = %91, %82
  %100 = phi i1 [ false, %82 ], [ true, %91 ]
  br i1 %100, label %101, label %113

101:                                              ; preds = %99
  %102 = load ptr, ptr %6, align 8, !tbaa !57
  %103 = icmp eq ptr %102, null
  br i1 %103, label %104, label %105

104:                                              ; preds = %101
  br label %109

105:                                              ; preds = %101
  %106 = load ptr, ptr %5, align 8, !tbaa !26
  %107 = load ptr, ptr %6, align 8, !tbaa !57
  %108 = getelementptr inbounds nuw %struct.Aig_Obj_t_, ptr %107, i32 0, i32 6
  store ptr %106, ptr %108, align 8, !tbaa !58
  br label %109

109:                                              ; preds = %105, %104
  br label %110

110:                                              ; preds = %109
  %111 = load i32, ptr %7, align 4, !tbaa !48
  %112 = add nsw i32 %111, 1
  store i32 %112, ptr %7, align 4, !tbaa !48
  br label %82, !llvm.loop !59

113:                                              ; preds = %99
  %114 = load ptr, ptr %5, align 8, !tbaa !26
  call void @llvm.lifetime.end.p0(i64 4, ptr %7) #10
  call void @llvm.lifetime.end.p0(i64 8, ptr %6) #10
  call void @llvm.lifetime.end.p0(i64 8, ptr %5) #10
  ret ptr %114
}