; Function Attrs: nounwind uwtable
define noundef ptr @Fra_ManStart(ptr noundef %0, ptr noundef %1) local_unnamed_addr #2 {
  %calloc = tail call dereferenceable_or_null(344) ptr @calloc(i64 1, i64 344)
  store ptr %1, ptr %calloc, align 8, !tbaa !19
  %3 = getelementptr inbounds nuw i8, ptr %calloc, i64 8
  store ptr %0, ptr %3, align 8, !tbaa !34
  %4 = getelementptr i8, ptr %0, i64 32
  %.val34 = load ptr, ptr %4, align 8, !tbaa !35
  %5 = getelementptr i8, ptr %.val34, i64 4
  %.val34.val = load i32, ptr %5, align 4, !tbaa !43
  %6 = getelementptr inbounds nuw i8, ptr %calloc, i64 40
  store i32 %.val34.val, ptr %6, align 8, !tbaa !45
  %7 = getelementptr inbounds nuw i8, ptr %1, i64 80
  %8 = load i32, ptr %7, align 8, !tbaa !17
  %9 = add nsw i32 %8, 1
  %10 = getelementptr inbounds nuw i8, ptr %calloc, i64 24
  store i32 %9, ptr %10, align 8, !tbaa !46
  %11 = getelementptr i8, ptr %0, i64 136
  %.val35 = load i32, ptr %11, align 8, !tbaa !47
  %12 = getelementptr i8, ptr %0, i64 104
  %.val36 = load i32, ptr %12, align 8, !tbaa !48
  %13 = sub nsw i32 %.val35, %.val36
  %14 = mul nsw i32 %13, %9
  %15 = add nsw i32 %14, %.val36
  %16 = ashr i32 %15, 5
  %17 = and i32 %15, 31
  %18 = icmp ne i32 %17, 0
  %19 = zext i1 %18 to i32
  %20 = add nsw i32 %16, %19
  %21 = getelementptr inbounds nuw i8, ptr %calloc, i64 72
  store i32 %20, ptr %21, align 8, !tbaa !49
  %22 = sext i32 %20 to i64
  %23 = shl nsw i64 %22, 2
  %24 = tail call noalias ptr @malloc(i64 noundef %23) #14
  %25 = getelementptr inbounds nuw i8, ptr %calloc, i64 80
  store ptr %24, ptr %25, align 8, !tbaa !50
  %26 = tail call noalias dereferenceable_or_null(16) ptr @malloc(i64 noundef 16) #14
  %27 = getelementptr inbounds nuw i8, ptr %26, i64 4
  store i32 0, ptr %27, align 4, !tbaa !43
  store i32 100, ptr %26, align 8, !tbaa !51
  %28 = tail call noalias dereferenceable_or_null(800) ptr @malloc(i64 noundef 800) #14
  %29 = getelementptr inbounds nuw i8, ptr %26, i64 8
  store ptr %28, ptr %29, align 8, !tbaa !52
  %30 = getelementptr inbounds nuw i8, ptr %calloc, i64 120
  store ptr %26, ptr %30, align 8, !tbaa !53
  %31 = tail call ptr @Fra_ClassesStart(ptr noundef %0) #15
  %32 = getelementptr inbounds nuw i8, ptr %calloc, i64 48
  store ptr %31, ptr %32, align 8, !tbaa !54
  %33 = mul nsw i32 %9, %.val34.val
  %34 = sext i32 %33 to i64
  %35 = shl nsw i64 %34, 3
  %36 = tail call noalias ptr @malloc(i64 noundef %35) #14
  %37 = getelementptr inbounds nuw i8, ptr %calloc, i64 32
  store ptr %36, ptr %37, align 8, !tbaa !55
  %38 = sext i32 %.val34.val to i64
  %39 = shl nsw i64 %38, 3
  %40 = sext i32 %9 to i64
  %41 = mul i64 %39, %40
  tail call void @llvm.memset.p0.i64(ptr align 8 %36, i8 0, i64 %41, i1 false)
  %42 = tail call i32 @Aig_ManRandom(i32 noundef 1) #15
  %43 = load ptr, ptr %4, align 8, !tbaa !35
  %44 = getelementptr i8, ptr %43, i64 4
  %.val39 = load i32, ptr %44, align 4, !tbaa !43
  %45 = icmp sgt i32 %.val39, 0
  br i1 %45, label %.lr.ph, label %.critedge

.lr.ph:                                           ; preds = %2, %54
  %46 = phi ptr [ %55, %54 ], [ %0, %2 ]
  %indvars.iv = phi i64 [ %indvars.iv.next, %54 ], [ 0, %2 ]
  %47 = phi ptr [ %57, %54 ], [ %43, %2 ]
  %48 = getelementptr i8, ptr %47, i64 8
  %.val38 = load ptr, ptr %48, align 8, !tbaa !52
  %49 = getelementptr inbounds nuw ptr, ptr %.val38, i64 %indvars.iv
  %50 = load ptr, ptr %49, align 8, !tbaa !56
  %51 = icmp eq ptr %50, null
  br i1 %51, label %54, label %52

52:                                               ; preds = %.lr.ph
  %53 = getelementptr inbounds nuw i8, ptr %50, i64 40
  store ptr %calloc, ptr %53, align 8, !tbaa !57
  %.pre = load ptr, ptr %3, align 8, !tbaa !34
  br label %54

54:                                               ; preds = %52, %.lr.ph
  %55 = phi ptr [ %.pre, %52 ], [ %46, %.lr.ph ]
  %indvars.iv.next = add nuw nsw i64 %indvars.iv, 1
  %56 = getelementptr inbounds nuw i8, ptr %55, i64 32
  %57 = load ptr, ptr %56, align 8, !tbaa !35
  %58 = getelementptr i8, ptr %57, i64 4
  %.val = load i32, ptr %58, align 4, !tbaa !43
  %59 = sext i32 %.val to i64
  %60 = icmp slt i64 %indvars.iv.next, %59
  br i1 %60, label %.lr.ph, label %.critedge, !llvm.loop !58

.critedge:                                        ; preds = %54, %2
  ret ptr %calloc
}